target datalayout = "e-m:e-p270:32:32-p271:32:32-p272:64:64-i64:64-i128:128-f80:128-n8:16:32:64-S128"
target triple = "x86_64-pc-linux-gnu"

%struct.FilterParams = type { i32, double, ptr, ptr, ptr }

; Function Attrs: alwaysinline nounwind willreturn memory(none) uwtable
define internal i32 @av_clip_uintp2_c(i32 noundef %0, i32 noundef %1) #7 {
  %3 = alloca i32, align 4
  %4 = alloca i32, align 4
  %5 = alloca i32, align 4
  store i32 %0, ptr %4, align 4, !tbaa !37
  store i32 %1, ptr %5, align 4, !tbaa !37
  %6 = load i32, ptr %4, align 4, !tbaa !37
  %7 = load i32, ptr %5, align 4, !tbaa !37
  %8 = shl i32 1, %7
  %9 = sub i32 %8, 1
  %10 = xor i32 %9, -1
  %11 = and i32 %6, %10
  %12 = icmp ne i32 %11, 0
  br i1 %12, label %13, label %21

13:                                               ; preds = %2
  %14 = load i32, ptr %4, align 4, !tbaa !37
  %15 = xor i32 %14, -1
  %16 = ashr i32 %15, 31
  %17 = load i32, ptr %5, align 4, !tbaa !37
  %18 = shl i32 1, %17
  %19 = sub i32 %18, 1
  %20 = and i32 %16, %19
  store i32 %20, ptr %3, align 4
  br label %23

21:                                               ; preds = %2
  %22 = load i32, ptr %4, align 4, !tbaa !37
  store i32 %22, ptr %3, align 4
  br label %23

23:                                               ; preds = %21, %13
  %24 = load i32, ptr %3, align 4
  ret i32 %24
}

; Function Attrs: nounwind uwtable
define internal void @blend_multiply128_10bit(ptr noundef %0, i64 noundef %1, ptr noundef %2, i64 noundef %3, ptr noundef %4, i64 noundef %5, i64 noundef %6, i64 noundef %7, ptr noundef %8, ptr noundef %9) #0 {
  %11 = alloca ptr, align 8
  %12 = alloca i64, align 8
  %13 = alloca ptr, align 8
  %14 = alloca i64, align 8
  %15 = alloca ptr, align 8
  %16 = alloca i64, align 8
  %17 = alloca i64, align 8
  %18 = alloca i64, align 8
  %19 = alloca ptr, align 8
  %20 = alloca ptr, align 8
  %21 = alloca ptr, align 8
  %22 = alloca ptr, align 8
  %23 = alloca ptr, align 8
  %24 = alloca float, align 4
  %25 = alloca i32, align 4
  %26 = alloca i32, align 4
  %27 = alloca i32, align 4
  store ptr %0, ptr %11, align 8, !tbaa !46
  store i64 %1, ptr %12, align 8, !tbaa !88
  store ptr %2, ptr %13, align 8, !tbaa !46
  store i64 %3, ptr %14, align 8, !tbaa !88
  store ptr %4, ptr %15, align 8, !tbaa !46
  store i64 %5, ptr %16, align 8, !tbaa !88
  store i64 %6, ptr %17, align 8, !tbaa !88
  store i64 %7, ptr %18, align 8, !tbaa !88
  store ptr %8, ptr %19, align 8, !tbaa !77
  store ptr %9, ptr %20, align 8, !tbaa !89
  call void @llvm.lifetime.start.p0(i64 8, ptr %21) #12
  %28 = load ptr, ptr %11, align 8, !tbaa !46
  store ptr %28, ptr %21, align 8, !tbaa !103
  call void @llvm.lifetime.start.p0(i64 8, ptr %22) #12
  %29 = load ptr, ptr %13, align 8, !tbaa !46
  store ptr %29, ptr %22, align 8, !tbaa !103
  call void @llvm.lifetime.start.p0(i64 8, ptr %23) #12
  %30 = load ptr, ptr %15, align 8, !tbaa !46
  store ptr %30, ptr %23, align 8, !tbaa !103
  call void @llvm.lifetime.start.p0(i64 4, ptr %24) #12
  %31 = load ptr, ptr %19, align 8, !tbaa !77
  %32 = getelementptr inbounds nuw %struct.FilterParams, ptr %31, i32 0, i32 1
  %33 = load double, ptr %32, align 8, !tbaa !82
  %34 = fptrunc nsz double %33 to float
  store float %34, ptr %24, align 4, !tbaa !99
  %35 = load i64, ptr %16, align 8, !tbaa !88
  %36 = udiv i64 %35, 2
  store i64 %36, ptr %16, align 8, !tbaa !88
  %37 = load i64, ptr %12, align 8, !tbaa !88
  %38 = udiv i64 %37, 2
  store i64 %38, ptr %12, align 8, !tbaa !88
  %39 = load i64, ptr %14, align 8, !tbaa !88
  %40 = udiv i64 %39, 2
  store i64 %40, ptr %14, align 8, !tbaa !88
  call void @llvm.lifetime.start.p0(i64 4, ptr %25) #12
  store i32 0, ptr %25, align 4, !tbaa !37
  br label %41

41:                                               ; preds = %109, %10
  %42 = load i32, ptr %25, align 4, !tbaa !37
  %43 = sext i32 %42 to i64
  %44 = load i64, ptr %18, align 8, !tbaa !88
  %45 = icmp slt i64 %43, %44
  br i1 %45, label %47, label %46

46:                                               ; preds = %41
  store i32 2, ptr %26, align 4
  call void @llvm.lifetime.end.p0(i64 4, ptr %25) #12
  br label %112

47:                                               ; preds = %41
  call void @llvm.lifetime.start.p0(i64 4, ptr %27) #12
  store i32 0, ptr %27, align 4, !tbaa !37
  br label %48

48:                                               ; preds = %96, %47
  %49 = load i32, ptr %27, align 4, !tbaa !37
  %50 = sext i32 %49 to i64
  %51 = load i64, ptr %17, align 8, !tbaa !88
  %52 = icmp slt i64 %50, %51
  br i1 %52, label %54, label %53

53:                                               ; preds = %48
  store i32 5, ptr %26, align 4
  call void @llvm.lifetime.end.p0(i64 4, ptr %27) #12
  br label %99

54:                                               ; preds = %48
  %55 = load ptr, ptr %21, align 8, !tbaa !103
  %56 = load i32, ptr %27, align 4, !tbaa !37
  %57 = sext i32 %56 to i64
  %58 = getelementptr inbounds i16, ptr %55, i64 %57
  %59 = load i16, ptr %58, align 2, !tbaa !105
  %60 = zext i16 %59 to i32
  %61 = sitofp i32 %60 to float
  %62 = load ptr, ptr %21, align 8, !tbaa !103
  %63 = load i32, ptr %27, align 4, !tbaa !37
  %64 = sext i32 %63 to i64
  %65 = getelementptr inbounds i16, ptr %62, i64 %64
  %66 = load i16, ptr %65, align 2, !tbaa !105
  %67 = zext i16 %66 to i32
  %68 = sub nsw i32 %67, 512
  %69 = load ptr, ptr %22, align 8, !tbaa !103
  %70 = load i32, ptr %27, align 4, !tbaa !37
  %71 = sext i32 %70 to i64
  %72 = getelementptr inbounds i16, ptr %69, i64 %71
  %73 = load i16, ptr %72, align 2, !tbaa !105
  %74 = zext i16 %73 to i32
  %75 = mul nsw i32 %68, %74
  %76 = sitofp i32 %75 to float
  %77 = fdiv nsz float %76, 1.280000e+02
  %78 = fadd nsz float %77, 5.120000e+02
  %79 = fptosi float %78 to i32
  %80 = call i32 @av_clip_uintp2_c(i32 noundef %79, i32 noundef 10) #15
  %81 = load ptr, ptr %21, align 8, !tbaa !103
  %82 = load i32, ptr %27, align 4, !tbaa !37
  %83 = sext i32 %82 to i64
  %84 = getelementptr inbounds i16, ptr %81, i64 %83
  %85 = load i16, ptr %84, align 2, !tbaa !105
  %86 = zext i16 %85 to i32
  %87 = sub nsw i32 %80, %86
  %88 = sitofp i32 %87 to float
  %89 = load float, ptr %24, align 4, !tbaa !99
  %90 = call nsz float @llvm.fmuladd.f32(float %88, float %89, float %61)
  %91 = fptoui float %90 to i16
  %92 = load ptr, ptr %23, align 8, !tbaa !103
  %93 = load i32, ptr %27, align 4, !tbaa !37
  %94 = sext i32 %93 to i64
  %95 = getelementptr inbounds i16, ptr %92, i64 %94
  store i16 %91, ptr %95, align 2, !tbaa !105
  br label %96

96:                                               ; preds = %54
  %97 = load i32, ptr %27, align 4, !tbaa !37
  %98 = add nsw i32 %97, 1
  store i32 %98, ptr %27, align 4, !tbaa !37
  br label %48, !llvm.loop !312

99:                                               ; preds = %53
  %100 = load i64, ptr %16, align 8, !tbaa !88
  %101 = load ptr, ptr %23, align 8, !tbaa !103
  %102 = getelementptr inbounds i16, ptr %101, i64 %100
  store ptr %102, ptr %23, align 8, !tbaa !103
  %103 = load i64, ptr %12, align 8, !tbaa !88
  %104 = load ptr, ptr %21, align 8, !tbaa !103
  %105 = getelementptr inbounds i16, ptr %104, i64 %103
  store ptr %105, ptr %21, align 8, !tbaa !103
  %106 = load i64, ptr %14, align 8, !tbaa !88
  %107 = load ptr, ptr %22, align 8, !tbaa !103
  %108 = getelementptr inbounds i16, ptr %107, i64 %106
  store ptr %108, ptr %22, align 8, !tbaa !103
  br label %109

109:                                              ; preds = %99
  %110 = load i32, ptr %25, align 4, !tbaa !37
  %111 = add nsw i32 %110, 1
  store i32 %111, ptr %25, align 4, !tbaa !37
  br label %41, !llvm.loop !313

112:                                              ; preds = %46
  call void @llvm.lifetime.end.p0(i64 4, ptr %24) #12
  call void @llvm.lifetime.end.p0(i64 8, ptr %23) #12
  call void @llvm.lifetime.end.p0(i64 8, ptr %22) #12
  call void @llvm.lifetime.end.p0(i64 8, ptr %21) #12
  ret void
}